target datalayout = "e-m:e-p270:32:32-p271:32:32-p272:64:64-i64:64-i128:128-f80:128-n8:16:32:64-S128"
target triple = "x86_64-pc-linux-gnu"

@.str.9 = private unnamed_addr constant [37 x i8] c"src/hotspot/share/prims/whitebox.cpp\00", align 1
@g_assert_poison = external global ptr, align 8
@WhiteBoxAPI = external global i8, align 1
@.str.36 = private unnamed_addr constant [30 x i8] c"guarantee(WhiteBoxAPI) failed\00", align 1
@.str.37 = private unnamed_addr constant [51 x i8] c"internal testing API :: WhiteBox has to be enabled\00", align 1

; Function Attrs: mustprogress nounwind uwtable
define hidden noundef ptr @_ZN8WhiteBox13get_code_heapE12CodeBlobType(i32 noundef %0) #1 align 2 {
  %2 = alloca i32, align 4
  store i32 %0, ptr %2, align 4
  br label %3

3:                                                ; preds = %1
  %4 = load i8, ptr @WhiteBoxAPI, align 1
  %5 = trunc i8 %4 to i1
  br i1 %5, label %8, label %6

6:                                                ; preds = %3
  %7 = load ptr, ptr @g_assert_poison, align 8
  store i8 88, ptr %7, align 1
  call void (ptr, i32, ptr, ptr, ...) @_Z15report_vm_errorPKciS0_S0_z(ptr noundef @.str.9, i32 noundef 1518, ptr noundef @.str.36, ptr noundef @.str.37) #12
  unreachable

8:                                                ; preds = %3
  br label %9

9:                                                ; preds = %8
  %10 = load i32, ptr %2, align 4
  %11 = call noundef ptr @_ZN9CodeCache13get_code_heapE12CodeBlobType(i32 noundef %10)
  ret ptr %11
}