; Function Attrs: mustprogress nounwind uwtable
define hidden noundef ptr @_ZN8WhiteBox13get_code_heapE12CodeBlobType(i32 noundef %0) local_unnamed_addr #0 align 2 {
  %2 = load i8, ptr @WhiteBoxAPI, align 1
  %3 = trunc i8 %2 to i1
  br i1 %3, label %6, label %4

4:                                                ; preds = %1
  %5 = load ptr, ptr @g_assert_poison, align 8
  store i8 88, ptr %5, align 1
  tail call void (ptr, i32, ptr, ptr, ...) @_Z15report_vm_errorPKciS0_S0_z(ptr noundef nonnull @.str.9, i32 noundef 1518, ptr noundef nonnull @.str.36, ptr noundef nonnull @.str.37) #16
  unreachable

6:                                                ; preds = %1
  %7 = tail call noundef ptr @_ZN9CodeCache13get_code_heapE12CodeBlobType(i32 noundef %0) #15
  ret ptr %7
}